target datalayout = "e-m:e-p270:32:32-p271:32:32-p272:64:64-i64:64-i128:128-f80:128-n8:16:32:64-S128"
target triple = "x86_64-pc-linux-gnu"

%"struct.realclosure::mpbq_config::interval" = type { %class.mpbq, %class.mpbq, i8, i8, i8, i8, [4 x i8] }
%class.mpbq = type <{ %class.mpz, i32, [4 x i8] }>
%class.mpz = type { i32, i8, ptr }
%"class.realclosure::manager" = type { ptr }
%"class.realclosure::num" = type { ptr }
%"struct.realclosure::value" = type { i32, i8, [3 x i8], %"struct.realclosure::mpbq_config::interval", ptr }

; Function Attrs: mustprogress nounwind uwtable
define linkonce_odr hidden void @_ZN11realclosure7manager3imp7inc_refEPNS_5valueE(ptr noundef nonnull align 8 dereferenceable(1497) %0, ptr noundef %1) #4 comdat align 2 {
  %3 = alloca ptr, align 8
  %4 = alloca ptr, align 8
  store ptr %0, ptr %3, align 8, !tbaa !28
  store ptr %1, ptr %4, align 8, !tbaa !99
  %5 = load ptr, ptr %4, align 8, !tbaa !99
  %6 = icmp ne ptr %5, null
  br i1 %6, label %7, label %12

7:                                                ; preds = %2
  %8 = load ptr, ptr %4, align 8, !tbaa !99
  %9 = getelementptr inbounds nuw %"struct.realclosure::value", ptr %8, i32 0, i32 0
  %10 = load i32, ptr %9, align 8, !tbaa !175
  %11 = add i32 %10, 1
  store i32 %11, ptr %9, align 8, !tbaa !175
  br label %12

12:                                               ; preds = %7, %2
  ret void
}

; Function Attrs: mustprogress uwtable
define linkonce_odr hidden void @_ZN11realclosure7manager3imp3setERNS_3numERKS2_(ptr noundef nonnull align 8 dereferenceable(1497) %0, ptr noundef nonnull align 8 dereferenceable(8) %1, ptr noundef nonnull align 8 dereferenceable(8) %2) #6 comdat align 2 {
  %4 = alloca ptr, align 8
  %5 = alloca ptr, align 8
  %6 = alloca ptr, align 8
  store ptr %0, ptr %4, align 8, !tbaa !28
  store ptr %1, ptr %5, align 8, !tbaa !76
  store ptr %2, ptr %6, align 8, !tbaa !76
  %7 = load ptr, ptr %4, align 8
  %8 = load ptr, ptr %6, align 8, !tbaa !76
  %9 = getelementptr inbounds nuw %"class.realclosure::num", ptr %8, i32 0, i32 0
  %10 = load ptr, ptr %9, align 8, !tbaa !78
  call void @_ZN11realclosure7manager3imp7inc_refEPNS_5valueE(ptr noundef nonnull align 8 dereferenceable(1497) %7, ptr noundef %10)
  %11 = load ptr, ptr %5, align 8, !tbaa !76
  %12 = getelementptr inbounds nuw %"class.realclosure::num", ptr %11, i32 0, i32 0
  %13 = load ptr, ptr %12, align 8, !tbaa !78
  call void @_ZN11realclosure7manager3imp7dec_refEPNS_5valueE(ptr noundef nonnull align 8 dereferenceable(1497) %7, ptr noundef %13)
  %14 = load ptr, ptr %6, align 8, !tbaa !76
  %15 = getelementptr inbounds nuw %"class.realclosure::num", ptr %14, i32 0, i32 0
  %16 = load ptr, ptr %15, align 8, !tbaa !78
  %17 = load ptr, ptr %5, align 8, !tbaa !76
  %18 = getelementptr inbounds nuw %"class.realclosure::num", ptr %17, i32 0, i32 0
  store ptr %16, ptr %18, align 8, !tbaa !78
  ret void
}

; Function Attrs: mustprogress uwtable
define hidden void @_ZN11realclosure7manager3setERNS_3numERKS1_(ptr noundef nonnull align 8 dereferenceable(8) %0, ptr noundef nonnull align 8 dereferenceable(8) %1, ptr noundef nonnull align 8 dereferenceable(8) %2) #6 align 2 {
  %4 = alloca ptr, align 8
  %5 = alloca ptr, align 8
  %6 = alloca ptr, align 8
  store ptr %0, ptr %4, align 8, !tbaa !15
  store ptr %1, ptr %5, align 8, !tbaa !76
  store ptr %2, ptr %6, align 8, !tbaa !76
  %7 = load ptr, ptr %4, align 8
  %8 = getelementptr inbounds nuw %"class.realclosure::manager", ptr %7, i32 0, i32 0
  %9 = load ptr, ptr %8, align 8, !tbaa !25
  %10 = load ptr, ptr %5, align 8, !tbaa !76
  %11 = load ptr, ptr %6, align 8, !tbaa !76
  call void @_ZN11realclosure7manager3imp3setERNS_3numERKS2_(ptr noundef nonnull align 8 dereferenceable(1497) %9, ptr noundef nonnull align 8 dereferenceable(8) %10, ptr noundef nonnull align 8 dereferenceable(8) %11)
  ret void
}