; Function Attrs: mustprogress uwtable
define hidden void @_ZN11realclosure7manager3setERNS_3numERKS1_(ptr noundef nonnull readonly align 8 captures(none) dereferenceable(8) %0, ptr noundef nonnull align 8 captures(none) dereferenceable(8) %1, ptr noundef nonnull readonly align 8 captures(none) dereferenceable(8) %2) local_unnamed_addr #5 align 2 {
  %4 = load ptr, ptr %0, align 8, !tbaa !11
  %5 = load ptr, ptr %2, align 8, !tbaa !84
  %.not.i.i = icmp eq ptr %5, null
  br i1 %.not.i.i, label %_ZN11realclosure7manager3imp3setERNS_3numERKS2_.exit, label %6

6:                                                ; preds = %3
  %7 = load i32, ptr %5, align 8, !tbaa !66
  %8 = add i32 %7, 1
  store i32 %8, ptr %5, align 8, !tbaa !66
  br label %_ZN11realclosure7manager3imp3setERNS_3numERKS2_.exit

_ZN11realclosure7manager3imp3setERNS_3numERKS2_.exit: ; preds = %3, %6
  %9 = load ptr, ptr %1, align 8, !tbaa !84
  tail call void @_ZN11realclosure7manager3imp7dec_refEPNS_5valueE(ptr noundef nonnull align 8 dereferenceable(1497) %4, ptr noundef %9)
  %10 = load ptr, ptr %2, align 8, !tbaa !84
  store ptr %10, ptr %1, align 8, !tbaa !84
  ret void
}